target datalayout = "e-m:e-p270:32:32-p271:32:32-p272:64:64-i64:64-i128:128-f80:128-n8:16:32:64-S128"
target triple = "x86_64-pc-linux-gnu"

%struct.expert_field = type { i32, i32 }

@hf_prs_bandwidth = internal global i32 0, align 4
@hf_prs_cyclic_prefix_type = internal global i32 0, align 4
@hf_prs_muting = internal global i32 0, align 4
@hf_nfapi_transmission_power = internal global i32 0, align 4
@ei_invalid_range = internal global %struct.expert_field zeroinitializer, align 4
@.str.2037 = private unnamed_addr constant [44 x i8] c"Invalid transmission power value [0..10000]\00", align 1
@.str.2070 = private unnamed_addr constant [53 x i8] c"Invalid prs bandwidth value [6, 15, 25, 50, 75, 100]\00", align 1
@.str.2071 = private unnamed_addr constant [39 x i8] c"Invalid prs cyclic prefix value [0..1]\00", align 1
@.str.2072 = private unnamed_addr constant [32 x i8] c"Invalid prs muting value [0..1]\00", align 1

; Function Attrs: nounwind uwtable
define internal void @dissect_dl_config_request_prs_pdu_rel9_value(ptr noundef %0, ptr noundef %1) #0 {
  %3 = alloca ptr, align 8
  %4 = alloca ptr, align 8
  %5 = alloca ptr, align 8
  %6 = alloca i32, align 4
  %7 = alloca i32, align 4
  store ptr %0, ptr %3, align 8
  store ptr %1, ptr %4, align 8
  %8 = load ptr, ptr %3, align 8
  %9 = load i32, ptr @hf_nfapi_transmission_power, align 4
  %10 = call ptr @ptvcursor_add_ret_uint(ptr noundef %8, i32 noundef %9, i32 noundef 2, i32 noundef 0, ptr noundef %6)
  store ptr %10, ptr %5, align 8
  %11 = load i32, ptr %6, align 4
  %12 = icmp ugt i32 %11, 10000
  br i1 %12, label %13, label %17

13:                                               ; preds = %2
  %14 = load ptr, ptr %4, align 8
  %15 = load ptr, ptr %5, align 8
  %16 = call ptr (ptr, ptr, ptr, ptr, ...) @expert_add_info_format(ptr noundef %14, ptr noundef %15, ptr noundef @ei_invalid_range, ptr noundef @.str.2037)
  br label %17

17:                                               ; preds = %13, %2
  %18 = load ptr, ptr %3, align 8
  %19 = load i32, ptr @hf_prs_bandwidth, align 4
  %20 = call ptr @ptvcursor_add_ret_uint(ptr noundef %18, i32 noundef %19, i32 noundef 1, i32 noundef 0, ptr noundef %6)
  store ptr %20, ptr %5, align 8
  %21 = load i32, ptr %6, align 4
  %22 = icmp eq i32 %21, 6
  br i1 %22, label %42, label %23

23:                                               ; preds = %17
  %24 = load i32, ptr %6, align 4
  %25 = icmp eq i32 %24, 15
  br i1 %25, label %42, label %26

26:                                               ; preds = %23
  %27 = load i32, ptr %6, align 4
  %28 = icmp eq i32 %27, 25
  br i1 %28, label %42, label %29

29:                                               ; preds = %26
  %30 = load i32, ptr %6, align 4
  %31 = icmp eq i32 %30, 50
  br i1 %31, label %42, label %32

32:                                               ; preds = %29
  %33 = load i32, ptr %6, align 4
  %34 = icmp eq i32 %33, 75
  br i1 %34, label %42, label %35

35:                                               ; preds = %32
  %36 = load i32, ptr %6, align 4
  %37 = icmp eq i32 %36, 100
  br i1 %37, label %42, label %38

38:                                               ; preds = %35
  %39 = load ptr, ptr %4, align 8
  %40 = load ptr, ptr %5, align 8
  %41 = call ptr (ptr, ptr, ptr, ptr, ...) @expert_add_info_format(ptr noundef %39, ptr noundef %40, ptr noundef @ei_invalid_range, ptr noundef @.str.2070)
  br label %42

42:                                               ; preds = %38, %35, %32, %29, %26, %23, %17
  %43 = load ptr, ptr %3, align 8
  %44 = load i32, ptr @hf_prs_cyclic_prefix_type, align 4
  %45 = call ptr @ptvcursor_add_ret_boolean(ptr noundef %43, i32 noundef %44, i32 noundef 1, i32 noundef 0, ptr noundef %7)
  store ptr %45, ptr %5, align 8
  %46 = load i32, ptr %7, align 4
  %47 = icmp sgt i32 %46, 1
  br i1 %47, label %48, label %52

48:                                               ; preds = %42
  %49 = load ptr, ptr %4, align 8
  %50 = load ptr, ptr %5, align 8
  %51 = call ptr (ptr, ptr, ptr, ptr, ...) @expert_add_info_format(ptr noundef %49, ptr noundef %50, ptr noundef @ei_invalid_range, ptr noundef @.str.2071)
  br label %52

52:                                               ; preds = %48, %42
  %53 = load ptr, ptr %3, align 8
  %54 = load i32, ptr @hf_prs_muting, align 4
  %55 = call ptr @ptvcursor_add_ret_boolean(ptr noundef %53, i32 noundef %54, i32 noundef 1, i32 noundef 0, ptr noundef %7)
  store ptr %55, ptr %5, align 8
  %56 = load i32, ptr %7, align 4
  %57 = icmp sgt i32 %56, 1
  br i1 %57, label %58, label %62

58:                                               ; preds = %52
  %59 = load ptr, ptr %4, align 8
  %60 = load ptr, ptr %5, align 8
  %61 = call ptr (ptr, ptr, ptr, ptr, ...) @expert_add_info_format(ptr noundef %59, ptr noundef %60, ptr noundef @ei_invalid_range, ptr noundef @.str.2072)
  br label %62

62:                                               ; preds = %58, %52
  ret void
}