; Function Attrs: nounwind uwtable
define internal void @dissect_dl_config_request_prs_pdu_rel9_value(ptr noundef %0, ptr noundef %1) #0 {
  %3 = alloca i32, align 4
  %4 = alloca i32, align 4
  %5 = load i32, ptr @hf_nfapi_transmission_power, align 4
  %6 = call ptr @ptvcursor_add_ret_uint(ptr noundef %0, i32 noundef %5, i32 noundef 2, i32 noundef 0, ptr noundef nonnull %3) #7
  %7 = load i32, ptr %3, align 4
  %8 = icmp ugt i32 %7, 10000
  br i1 %8, label %9, label %11

9:                                                ; preds = %2
  %10 = call ptr (ptr, ptr, ptr, ptr, ...) @expert_add_info_format(ptr noundef %1, ptr noundef %6, ptr noundef nonnull @ei_invalid_range, ptr noundef nonnull @.str.2037) #7
  br label %11

11:                                               ; preds = %9, %2
  %12 = load i32, ptr @hf_prs_bandwidth, align 4
  %13 = call ptr @ptvcursor_add_ret_uint(ptr noundef %0, i32 noundef %12, i32 noundef 1, i32 noundef 0, ptr noundef nonnull %3) #7
  %14 = load i32, ptr %3, align 4
  switch i32 %14, label %15 [
    i32 100, label %17
    i32 75, label %17
    i32 50, label %17
    i32 25, label %17
    i32 15, label %17
    i32 6, label %17
  ]

15:                                               ; preds = %11
  %16 = call ptr (ptr, ptr, ptr, ptr, ...) @expert_add_info_format(ptr noundef %1, ptr noundef %13, ptr noundef nonnull @ei_invalid_range, ptr noundef nonnull @.str.2070) #7
  br label %17

17:                                               ; preds = %11, %11, %11, %11, %11, %11, %15
  %18 = load i32, ptr @hf_prs_cyclic_prefix_type, align 4
  %19 = call ptr @ptvcursor_add_ret_boolean(ptr noundef %0, i32 noundef %18, i32 noundef 1, i32 noundef 0, ptr noundef nonnull %4) #7
  %20 = load i32, ptr %4, align 4
  %21 = icmp sgt i32 %20, 1
  br i1 %21, label %22, label %24

22:                                               ; preds = %17
  %23 = call ptr (ptr, ptr, ptr, ptr, ...) @expert_add_info_format(ptr noundef %1, ptr noundef %19, ptr noundef nonnull @ei_invalid_range, ptr noundef nonnull @.str.2071) #7
  br label %24

24:                                               ; preds = %22, %17
  %25 = load i32, ptr @hf_prs_muting, align 4
  %26 = call ptr @ptvcursor_add_ret_boolean(ptr noundef %0, i32 noundef %25, i32 noundef 1, i32 noundef 0, ptr noundef nonnull %4) #7
  %27 = load i32, ptr %4, align 4
  %28 = icmp sgt i32 %27, 1
  br i1 %28, label %29, label %31

29:                                               ; preds = %24
  %30 = call ptr (ptr, ptr, ptr, ptr, ...) @expert_add_info_format(ptr noundef %1, ptr noundef %26, ptr noundef nonnull @ei_invalid_range, ptr noundef nonnull @.str.2072) #7
  br label %31

31:                                               ; preds = %29, %24
  ret void
}